target datalayout = "e-m:e-p270:32:32-p271:32:32-p272:64:64-i64:64-i128:128-f80:128-n8:16:32:64-S128"
target triple = "x86_64-pc-linux-gnu"

%struct.HTTPContext = type { ptr, ptr, [8192 x i8], ptr, ptr, i32, i32, i64, i32, i64, i64, i64, ptr, ptr, %struct.HTTPAuthState, %struct.HTTPAuthState, ptr, ptr, ptr, ptr, ptr, ptr, ptr, i32, i32, i32, i32, i32, i32, ptr, i32, i32, i32, ptr, ptr, i32, i64, i64, ptr, ptr, ptr, i32, %struct.z_stream_s, ptr, ptr, i32, ptr, i32, i32, i32, i32, i32, ptr, i32, ptr, i32, i32, i32, i32, i32, i64, ptr, ptr, i64, i32, i32, i32, i32 }
%struct.HTTPAuthState = type { i32, [200 x i8], %struct.DigestParams, i32 }
%struct.DigestParams = type { [300 x i8], [10 x i8], [30 x i8], [300 x i8], [10 x i8], i32 }
%struct.z_stream_s = type { ptr, i32, i64, ptr, i32, i64, ptr, ptr, ptr, ptr, ptr, i32, i64, i64 }
%struct.tm = type { i32, i32, i32, i32, i32, i32, i32, i32, i32, i64, ptr }

@.str.63 = private unnamed_addr constant [13 x i8] c"%d%b%Y%H%M%S\00", align 1

; Function Attrs: nounwind uwtable
define internal i32 @parse_http_date(ptr noundef %0, ptr noundef %1) #0 {
  %3 = alloca ptr, align 8
  %4 = alloca ptr, align 8
  %5 = alloca [19 x i8], align 16
  %6 = alloca i32, align 4
  %7 = alloca i32, align 4
  %8 = alloca i32, align 4
  %9 = alloca ptr, align 8
  store ptr %0, ptr %3, align 8, !tbaa !17
  store ptr %1, ptr %4, align 8, !tbaa !119
  call void @llvm.lifetime.start.p0(i64 19, ptr %5) #11
  call void @llvm.lifetime.start.p0(i64 4, ptr %6) #11
  call void @llvm.lifetime.start.p0(i64 4, ptr %7) #11
  call void @llvm.lifetime.start.p0(i64 4, ptr %8) #11
  store i32 18, ptr %8, align 4, !tbaa !34
  call void @llvm.lifetime.start.p0(i64 8, ptr %9) #11
  store i32 0, ptr %6, align 4, !tbaa !34
  store i32 0, ptr %7, align 4, !tbaa !34
  br label %10

10:                                               ; preds = %84, %2
  %11 = load ptr, ptr %3, align 8, !tbaa !17
  %12 = load i32, ptr %6, align 4, !tbaa !34
  %13 = sext i32 %12 to i64
  %14 = getelementptr inbounds i8, ptr %11, i64 %13
  %15 = load i8, ptr %14, align 1, !tbaa !64
  %16 = sext i8 %15 to i32
  %17 = icmp ne i32 %16, 0
  br i1 %17, label %18, label %22

18:                                               ; preds = %10
  %19 = load i32, ptr %7, align 4, !tbaa !34
  %20 = load i32, ptr %8, align 4, !tbaa !34
  %21 = icmp slt i32 %19, %20
  br label %22

22:                                               ; preds = %18, %10
  %23 = phi i1 [ false, %10 ], [ %21, %18 ]
  br i1 %23, label %24, label %87

24:                                               ; preds = %22
  %25 = load ptr, ptr %3, align 8, !tbaa !17
  %26 = load i32, ptr %6, align 4, !tbaa !34
  %27 = sext i32 %26 to i64
  %28 = getelementptr inbounds i8, ptr %25, i64 %27
  %29 = load i8, ptr %28, align 1, !tbaa !64
  %30 = sext i8 %29 to i32
  %31 = icmp sge i32 %30, 48
  br i1 %31, label %32, label %40

32:                                               ; preds = %24
  %33 = load ptr, ptr %3, align 8, !tbaa !17
  %34 = load i32, ptr %6, align 4, !tbaa !34
  %35 = sext i32 %34 to i64
  %36 = getelementptr inbounds i8, ptr %33, i64 %35
  %37 = load i8, ptr %36, align 1, !tbaa !64
  %38 = sext i8 %37 to i32
  %39 = icmp sle i32 %38, 57
  br i1 %39, label %72, label %40

40:                                               ; preds = %32, %24
  %41 = load ptr, ptr %3, align 8, !tbaa !17
  %42 = load i32, ptr %6, align 4, !tbaa !34
  %43 = sext i32 %42 to i64
  %44 = getelementptr inbounds i8, ptr %41, i64 %43
  %45 = load i8, ptr %44, align 1, !tbaa !64
  %46 = sext i8 %45 to i32
  %47 = icmp sge i32 %46, 65
  br i1 %47, label %48, label %56

48:                                               ; preds = %40
  %49 = load ptr, ptr %3, align 8, !tbaa !17
  %50 = load i32, ptr %6, align 4, !tbaa !34
  %51 = sext i32 %50 to i64
  %52 = getelementptr inbounds i8, ptr %49, i64 %51
  %53 = load i8, ptr %52, align 1, !tbaa !64
  %54 = sext i8 %53 to i32
  %55 = icmp sle i32 %54, 90
  br i1 %55, label %72, label %56

56:                                               ; preds = %48, %40
  %57 = load ptr, ptr %3, align 8, !tbaa !17
  %58 = load i32, ptr %6, align 4, !tbaa !34
  %59 = sext i32 %58 to i64
  %60 = getelementptr inbounds i8, ptr %57, i64 %59
  %61 = load i8, ptr %60, align 1, !tbaa !64
  %62 = sext i8 %61 to i32
  %63 = icmp sge i32 %62, 97
  br i1 %63, label %64, label %83

64:                                               ; preds = %56
  %65 = load ptr, ptr %3, align 8, !tbaa !17
  %66 = load i32, ptr %6, align 4, !tbaa !34
  %67 = sext i32 %66 to i64
  %68 = getelementptr inbounds i8, ptr %65, i64 %67
  %69 = load i8, ptr %68, align 1, !tbaa !64
  %70 = sext i8 %69 to i32
  %71 = icmp sle i32 %70, 122
  br i1 %71, label %72, label %83

72:                                               ; preds = %64, %48, %32
  %73 = load ptr, ptr %3, align 8, !tbaa !17
  %74 = load i32, ptr %6, align 4, !tbaa !34
  %75 = sext i32 %74 to i64
  %76 = getelementptr inbounds i8, ptr %73, i64 %75
  %77 = load i8, ptr %76, align 1, !tbaa !64
  %78 = load i32, ptr %7, align 4, !tbaa !34
  %79 = sext i32 %78 to i64
  %80 = getelementptr inbounds [19 x i8], ptr %5, i64 0, i64 %79
  store i8 %77, ptr %80, align 1, !tbaa !64
  %81 = load i32, ptr %7, align 4, !tbaa !34
  %82 = add nsw i32 %81, 1
  store i32 %82, ptr %7, align 4, !tbaa !34
  br label %83

83:                                               ; preds = %72, %64, %56
  br label %84

84:                                               ; preds = %83
  %85 = load i32, ptr %6, align 4, !tbaa !34
  %86 = add nsw i32 %85, 1
  store i32 %86, ptr %6, align 4, !tbaa !34
  br label %10, !llvm.loop !121

87:                                               ; preds = %22
  %88 = load i32, ptr %7, align 4, !tbaa !34
  %89 = sext i32 %88 to i64
  %90 = getelementptr inbounds [19 x i8], ptr %5, i64 0, i64 %89
  store i8 0, ptr %90, align 1, !tbaa !64
  %91 = getelementptr inbounds [19 x i8], ptr %5, i64 0, i64 0
  store ptr %91, ptr %9, align 8, !tbaa !17
  br label %92

92:                                               ; preds = %109, %87
  %93 = load ptr, ptr %9, align 8, !tbaa !17
  %94 = load i8, ptr %93, align 1, !tbaa !64
  %95 = sext i8 %94 to i32
  %96 = icmp slt i32 %95, 48
  br i1 %96, label %102, label %97

97:                                               ; preds = %92
  %98 = load ptr, ptr %9, align 8, !tbaa !17
  %99 = load i8, ptr %98, align 1, !tbaa !64
  %100 = sext i8 %99 to i32
  %101 = icmp sgt i32 %100, 57
  br i1 %101, label %102, label %107

102:                                              ; preds = %97, %92
  %103 = load ptr, ptr %9, align 8, !tbaa !17
  %104 = load i8, ptr %103, align 1, !tbaa !64
  %105 = sext i8 %104 to i32
  %106 = icmp ne i32 %105, 0
  br label %107

107:                                              ; preds = %102, %97
  %108 = phi i1 [ false, %97 ], [ %106, %102 ]
  br i1 %108, label %109, label %112

109:                                              ; preds = %107
  %110 = load ptr, ptr %9, align 8, !tbaa !17
  %111 = getelementptr inbounds nuw i8, ptr %110, i32 1
  store ptr %111, ptr %9, align 8, !tbaa !17
  br label %92, !llvm.loop !122

112:                                              ; preds = %107
  %113 = load ptr, ptr %9, align 8, !tbaa !17
  %114 = load ptr, ptr %4, align 8, !tbaa !119
  %115 = call ptr @av_small_strptime(ptr noundef %113, ptr noundef @.str.63, ptr noundef %114)
  %116 = icmp ne ptr %115, null
  %117 = select i1 %116, i32 0, i32 -22
  call void @llvm.lifetime.end.p0(i64 8, ptr %9) #11
  call void @llvm.lifetime.end.p0(i64 4, ptr %8) #11
  call void @llvm.lifetime.end.p0(i64 4, ptr %7) #11
  call void @llvm.lifetime.end.p0(i64 4, ptr %6) #11
  call void @llvm.lifetime.end.p0(i64 19, ptr %5) #11
  ret i32 %117
}

; Function Attrs: nounwind uwtable
define internal void @parse_expires(ptr noundef %0, ptr noundef %1) #0 {
  %3 = alloca ptr, align 8
  %4 = alloca ptr, align 8
  %5 = alloca %struct.tm, align 8
  store ptr %0, ptr %3, align 8, !tbaa !21
  store ptr %1, ptr %4, align 8, !tbaa !17
  call void @llvm.lifetime.start.p0(i64 56, ptr %5) #11
  %6 = load ptr, ptr %4, align 8, !tbaa !17
  %7 = call i32 @parse_http_date(ptr noundef %6, ptr noundef %5)
  %8 = icmp ne i32 %7, 0
  br i1 %8, label %13, label %9

9:                                                ; preds = %2
  %10 = call i64 @av_timegm(ptr noundef %5)
  %11 = load ptr, ptr %3, align 8, !tbaa !21
  %12 = getelementptr inbounds nuw %struct.HTTPContext, ptr %11, i32 0, i32 60
  store i64 %10, ptr %12, align 8, !tbaa !58
  br label %13

13:                                               ; preds = %9, %2
  call void @llvm.lifetime.end.p0(i64 56, ptr %5) #11
  ret void
}