; Function Attrs: nounwind uwtable
define internal fastcc void @parse_expires(ptr noundef writeonly captures(none) %0, ptr noundef readonly captures(none) %1) unnamed_addr #2 {
  %3 = alloca [19 x i8], align 16
  %4 = alloca %struct.tm, align 8
  call void @llvm.lifetime.start.p0(i64 56, ptr nonnull %4) #15
  call void @llvm.lifetime.start.p0(i64 19, ptr nonnull %3) #15
  %5 = load i8, ptr %1, align 1, !tbaa !44
  %.not42.i = icmp eq i8 %5, 0
  br i1 %.not42.i, label %._crit_edge.i, label %.lr.ph.i

.lr.ph.i:                                         ; preds = %2, %15
  %indvars.iv.i = phi i64 [ %indvars.iv.next.i, %15 ], [ 0, %2 ]
  %6 = phi i8 [ %17, %15 ], [ %5, %2 ]
  %.02840.i = phi i32 [ %.1.i, %15 ], [ 0, %2 ]
  %7 = add i8 %6, -48
  %or.cond.i = icmp ult i8 %7, 10
  %8 = and i8 %6, -33
  %9 = add i8 %8, -65
  %10 = icmp ult i8 %9, 26
  %or.cond39.i = or i1 %or.cond.i, %10
  br i1 %or.cond39.i, label %11, label %15

11:                                               ; preds = %.lr.ph.i
  %12 = sext i32 %.02840.i to i64
  %13 = getelementptr inbounds [19 x i8], ptr %3, i64 0, i64 %12
  store i8 %6, ptr %13, align 1, !tbaa !44
  %14 = add nsw i32 %.02840.i, 1
  br label %15

15:                                               ; preds = %11, %.lr.ph.i
  %.1.i = phi i32 [ %14, %11 ], [ %.02840.i, %.lr.ph.i ]
  %indvars.iv.next.i = add nuw nsw i64 %indvars.iv.i, 1
  %16 = getelementptr inbounds nuw i8, ptr %1, i64 %indvars.iv.next.i
  %17 = load i8, ptr %16, align 1, !tbaa !44
  %18 = icmp ne i8 %17, 0
  %19 = icmp slt i32 %.1.i, 18
  %20 = select i1 %18, i1 %19, i1 false
  br i1 %20, label %.lr.ph.i, label %._crit_edge.loopexit.i, !llvm.loop !64

._crit_edge.loopexit.i:                           ; preds = %15
  %21 = sext i32 %.1.i to i64
  br label %._crit_edge.i

._crit_edge.i:                                    ; preds = %._crit_edge.loopexit.i, %2
  %.028.lcssa.i = phi i64 [ 0, %2 ], [ %21, %._crit_edge.loopexit.i ]
  %22 = getelementptr inbounds [19 x i8], ptr %3, i64 0, i64 %.028.lcssa.i
  store i8 0, ptr %22, align 1, !tbaa !44
  br label %23

23:                                               ; preds = %23, %._crit_edge.i
  %.0.i = phi ptr [ %3, %._crit_edge.i ], [ %26, %23 ]
  %24 = load i8, ptr %.0.i, align 1, !tbaa !44
  %25 = add i8 %24, -48
  %or.cond36.i = icmp ult i8 %25, 10
  %.not.i = icmp eq i8 %24, 0
  %or.cond37.i = or i1 %.not.i, %or.cond36.i
  %26 = getelementptr inbounds nuw i8, ptr %.0.i, i64 1
  br i1 %or.cond37.i, label %parse_http_date.exit, label %23, !llvm.loop !65

parse_http_date.exit:                             ; preds = %23
  %27 = call ptr @av_small_strptime(ptr noundef nonnull %.0.i, ptr noundef nonnull @.str.63, ptr noundef nonnull %4) #15
  %.not33.i.not = icmp eq ptr %27, null
  call void @llvm.lifetime.end.p0(i64 19, ptr nonnull %3) #15
  br i1 %.not33.i.not, label %31, label %28

28:                                               ; preds = %parse_http_date.exit
  %29 = call i64 @av_timegm(ptr noundef nonnull %4) #15
  %30 = getelementptr inbounds nuw i8, ptr %0, i64 10408
  store i64 %29, ptr %30, align 8, !tbaa !90
  br label %31

31:                                               ; preds = %28, %parse_http_date.exit
  call void @llvm.lifetime.end.p0(i64 56, ptr nonnull %4) #15
  ret void
}